target datalayout = "e-m:e-p270:32:32-p271:32:32-p272:64:64-i64:64-i128:128-f80:128-n8:16:32:64-S128"
target triple = "x86_64-pc-linux-gnu"

%struct.wg_qqword = type { [32 x i8] }

@.str.106 = private unnamed_addr constant [35 x i8] c"epan/dissectors/packet-wireguard.c\00", align 1
@.str.109 = private unnamed_addr constant [29 x i8] c"%s:%u: failed assertion \22%s\22\00", align 1
@.str.115 = private unnamed_addr constant [16 x i8] c"ctext_len >= 16\00", align 1
@.str.116 = private unnamed_addr constant [3 x i8] c"hd\00", align 1

; Function Attrs: alwaysinline nounwind
define internal ptr @memcpy.inline(ptr noalias %0, ptr noalias %1, i64 %2) #11 {
  %4 = alloca ptr, align 8
  %5 = alloca ptr, align 8
  %6 = alloca i64, align 8
  store ptr %0, ptr %4, align 8
  store ptr %1, ptr %5, align 8
  store i64 %2, ptr %6, align 8
  %7 = load ptr, ptr %4, align 8
  %8 = load ptr, ptr %5, align 8
  %9 = load i64, ptr %6, align 8
  %10 = load ptr, ptr %4, align 8
  %11 = call i64 @llvm.objectsize.i64.p0(ptr %10, i1 false, i1 true, i1 true)
  %12 = call ptr @__memcpy_chk(ptr noundef %7, ptr noundef %8, i64 noundef %9, i64 noundef %11) #19
  ret ptr %12
}

; Function Attrs: null_pointer_is_valid sspstrong uwtable
define internal zeroext i1 @wg_aead_decrypt(ptr noundef %0, i64 noundef %1, ptr noundef %2, i32 noundef %3, ptr noundef %4, i32 noundef %5, ptr noundef %6, i32 noundef %7) #0 {
  %9 = alloca ptr, align 8
  %10 = alloca i64, align 8
  %11 = alloca ptr, align 8
  %12 = alloca i32, align 4
  %13 = alloca ptr, align 8
  %14 = alloca i32, align 4
  %15 = alloca ptr, align 8
  %16 = alloca i32, align 4
  %17 = alloca ptr, align 8
  %18 = alloca [12 x i8], align 1
  store ptr %0, ptr %9, align 8
  store i64 %1, ptr %10, align 8
  store ptr %2, ptr %11, align 8
  store i32 %3, ptr %12, align 4
  store ptr %4, ptr %13, align 8
  store i32 %5, ptr %14, align 4
  store ptr %6, ptr %15, align 8
  store i32 %7, ptr %16, align 4
  %19 = load i32, ptr %12, align 4
  %20 = icmp uge i32 %19, 16
  br i1 %20, label %21, label %22

21:                                               ; preds = %8
  br label %24

22:                                               ; preds = %8
  call void (ptr, ...) @proto_report_dissector_bug(ptr noundef @.str.109, ptr noundef @.str.106, i32 noundef 487, ptr noundef @.str.115) #22
  unreachable

23:                                               ; No predecessors!
  br label %24

24:                                               ; preds = %23, %21
  %25 = load i32, ptr %12, align 4
  %26 = sub i32 %25, 16
  store i32 %26, ptr %12, align 4
  call void @llvm.lifetime.start.p0(i64 8, ptr %17) #19
  %27 = load ptr, ptr %11, align 8
  %28 = load i32, ptr %12, align 4
  %29 = zext i32 %28 to i64
  %30 = getelementptr i8, ptr %27, i64 %29
  store ptr %30, ptr %17, align 8
  %31 = load i64, ptr %10, align 8
  store i64 %31, ptr %10, align 8
  call void @llvm.lifetime.start.p0(i64 12, ptr %18) #19
  call void @llvm.memset.p0.i64(ptr align 1 %18, i8 0, i64 12, i1 false)
  %32 = getelementptr inbounds [12 x i8], ptr %18, i64 0, i64 0
  %33 = getelementptr i8, ptr %32, i64 4
  %34 = call ptr @memcpy.inline(ptr noundef %33, ptr noundef %10, i64 noundef 8) #19
  %35 = load ptr, ptr %9, align 8
  %36 = getelementptr inbounds [12 x i8], ptr %18, i64 0, i64 0
  %37 = call i32 @gcry_cipher_setiv(ptr noundef %35, ptr noundef %36, i64 noundef 12)
  %38 = icmp eq i32 %37, 0
  br i1 %38, label %39, label %61

39:                                               ; preds = %24
  %40 = load ptr, ptr %9, align 8
  %41 = load ptr, ptr %13, align 8
  %42 = load i32, ptr %14, align 4
  %43 = zext i32 %42 to i64
  %44 = call i32 @gcry_cipher_authenticate(ptr noundef %40, ptr noundef %41, i64 noundef %43)
  %45 = icmp eq i32 %44, 0
  br i1 %45, label %46, label %61

46:                                               ; preds = %39
  %47 = load ptr, ptr %9, align 8
  %48 = load ptr, ptr %15, align 8
  %49 = load i32, ptr %16, align 4
  %50 = zext i32 %49 to i64
  %51 = load ptr, ptr %11, align 8
  %52 = load i32, ptr %12, align 4
  %53 = zext i32 %52 to i64
  %54 = call i32 @gcry_cipher_decrypt(ptr noundef %47, ptr noundef %48, i64 noundef %50, ptr noundef %51, i64 noundef %53)
  %55 = icmp eq i32 %54, 0
  br i1 %55, label %56, label %61

56:                                               ; preds = %46
  %57 = load ptr, ptr %9, align 8
  %58 = load ptr, ptr %17, align 8
  %59 = call i32 @gcry_cipher_checktag(ptr noundef %57, ptr noundef %58, i64 noundef 16)
  %60 = icmp eq i32 %59, 0
  br label %61

61:                                               ; preds = %56, %46, %39, %24
  %62 = phi i1 [ false, %46 ], [ false, %39 ], [ false, %24 ], [ %60, %56 ]
  call void @llvm.lifetime.end.p0(i64 12, ptr %18) #19
  call void @llvm.lifetime.end.p0(i64 8, ptr %17) #19
  ret i1 %62
}

; Function Attrs: null_pointer_is_valid sspstrong uwtable
define internal ptr @wg_create_cipher(ptr noundef %0) #0 {
  %2 = alloca ptr, align 8
  %3 = alloca ptr, align 8
  %4 = alloca ptr, align 8
  %5 = alloca i32, align 4
  store ptr %0, ptr %3, align 8
  call void @llvm.lifetime.start.p0(i64 8, ptr %4) #19
  %6 = call i32 @gcry_cipher_open(ptr noundef %4, i32 noundef 316, i32 noundef 10, i32 noundef 0)
  %7 = icmp ne i32 %6, 0
  br i1 %7, label %8, label %9

8:                                                ; preds = %1
  store ptr null, ptr %2, align 8
  store i32 1, ptr %5, align 4
  br label %20

9:                                                ; preds = %1
  %10 = load ptr, ptr %4, align 8
  %11 = load ptr, ptr %3, align 8
  %12 = getelementptr inbounds nuw %struct.wg_qqword, ptr %11, i32 0, i32 0
  %13 = getelementptr inbounds [32 x i8], ptr %12, i64 0, i64 0
  %14 = call i32 @gcry_cipher_setkey(ptr noundef %10, ptr noundef %13, i64 noundef 32)
  %15 = icmp ne i32 %14, 0
  br i1 %15, label %16, label %18

16:                                               ; preds = %9
  %17 = load ptr, ptr %4, align 8
  call void @gcry_cipher_close(ptr noundef %17)
  store ptr null, ptr %4, align 8
  br label %18

18:                                               ; preds = %16, %9
  %19 = load ptr, ptr %4, align 8
  store ptr %19, ptr %2, align 8
  store i32 1, ptr %5, align 4
  br label %20

20:                                               ; preds = %18, %8
  call void @llvm.lifetime.end.p0(i64 8, ptr %4) #19
  %21 = load ptr, ptr %2, align 8
  ret ptr %21
}

; Function Attrs: null_pointer_is_valid sspstrong uwtable
define internal zeroext i1 @aead_decrypt(ptr noundef %0, i64 noundef %1, ptr noundef %2, i32 noundef %3, ptr noundef %4, i32 noundef %5, ptr noundef %6, i32 noundef %7) #0 {
  %9 = alloca ptr, align 8
  %10 = alloca i64, align 8
  %11 = alloca ptr, align 8
  %12 = alloca i32, align 4
  %13 = alloca ptr, align 8
  %14 = alloca i32, align 4
  %15 = alloca ptr, align 8
  %16 = alloca i32, align 4
  %17 = alloca ptr, align 8
  %18 = alloca i8, align 1
  store ptr %0, ptr %9, align 8
  store i64 %1, ptr %10, align 8
  store ptr %2, ptr %11, align 8
  store i32 %3, ptr %12, align 4
  store ptr %4, ptr %13, align 8
  store i32 %5, ptr %14, align 4
  store ptr %6, ptr %15, align 8
  store i32 %7, ptr %16, align 4
  %19 = load i32, ptr %12, align 4
  %20 = icmp uge i32 %19, 16
  br i1 %20, label %21, label %22

21:                                               ; preds = %8
  br label %24

22:                                               ; preds = %8
  call void (ptr, ...) @proto_report_dissector_bug(ptr noundef @.str.109, ptr noundef @.str.106, i32 noundef 508, ptr noundef @.str.115) #22
  unreachable

23:                                               ; No predecessors!
  br label %24

24:                                               ; preds = %23, %21
  call void @llvm.lifetime.start.p0(i64 8, ptr %17) #19
  %25 = load ptr, ptr %9, align 8
  %26 = call ptr @wg_create_cipher(ptr noundef %25)
  store ptr %26, ptr %17, align 8
  %27 = load ptr, ptr %17, align 8
  %28 = icmp ne ptr %27, null
  br i1 %28, label %29, label %30

29:                                               ; preds = %24
  br label %32

30:                                               ; preds = %24
  call void (ptr, ...) @proto_report_dissector_bug(ptr noundef @.str.109, ptr noundef @.str.106, i32 noundef 511, ptr noundef @.str.116) #22
  unreachable

31:                                               ; No predecessors!
  br label %32

32:                                               ; preds = %31, %29
  call void @llvm.lifetime.start.p0(i64 1, ptr %18) #19
  %33 = load ptr, ptr %17, align 8
  %34 = load i64, ptr %10, align 8
  %35 = load ptr, ptr %11, align 8
  %36 = load i32, ptr %12, align 4
  %37 = load ptr, ptr %13, align 8
  %38 = load i32, ptr %14, align 4
  %39 = load ptr, ptr %15, align 8
  %40 = load i32, ptr %16, align 4
  %41 = call zeroext i1 @wg_aead_decrypt(ptr noundef %33, i64 noundef %34, ptr noundef %35, i32 noundef %36, ptr noundef %37, i32 noundef %38, ptr noundef %39, i32 noundef %40)
  %42 = zext i1 %41 to i8
  store i8 %42, ptr %18, align 1
  %43 = load ptr, ptr %17, align 8
  call void @gcry_cipher_close(ptr noundef %43)
  %44 = load i8, ptr %18, align 1, !range !6, !noundef !7
  %45 = trunc i8 %44 to i1
  call void @llvm.lifetime.end.p0(i64 1, ptr %18) #19
  call void @llvm.lifetime.end.p0(i64 8, ptr %17) #19
  ret i1 %45
}