; Function Attrs: null_pointer_is_valid sspstrong uwtable
define internal fastcc zeroext i1 @aead_decrypt(ptr noundef %0, ptr noundef %1, i32 noundef range(i32 16, 49) %2, ptr noundef %3, ptr noundef %4, i32 noundef range(i32 0, 33) %5) unnamed_addr #0 {
  %7 = alloca [12 x i8], align 4
  %8 = alloca ptr, align 8
  call void @llvm.lifetime.start.p0(i64 8, ptr nonnull %8) #18
  %9 = call i32 @gcry_cipher_open(ptr noundef nonnull %8, i32 noundef 316, i32 noundef 10, i32 noundef 0)
  %.not.i = icmp eq i32 %9, 0
  br i1 %.not.i, label %10, label %wg_create_cipher.exit.thread

10:                                               ; preds = %6
  %11 = load ptr, ptr %8, align 8
  %12 = call i32 @gcry_cipher_setkey(ptr noundef %11, ptr noundef %0, i64 noundef 32)
  %.not2.i = icmp eq i32 %12, 0
  %.pre.i = load ptr, ptr %8, align 8
  br i1 %.not2.i, label %wg_create_cipher.exit, label %13

13:                                               ; preds = %10
  call void @gcry_cipher_close(ptr noundef %.pre.i)
  br label %wg_create_cipher.exit.thread

wg_create_cipher.exit.thread:                     ; preds = %6, %13
  call void @llvm.lifetime.end.p0(i64 8, ptr nonnull %8) #18
  br label %14

wg_create_cipher.exit:                            ; preds = %10
  call void @llvm.lifetime.end.p0(i64 8, ptr nonnull %8) #18
  %.not = icmp eq ptr %.pre.i, null
  br i1 %.not, label %14, label %15

14:                                               ; preds = %wg_create_cipher.exit.thread, %wg_create_cipher.exit
  call void (ptr, ...) @proto_report_dissector_bug(ptr noundef nonnull @.str.109, ptr noundef nonnull @.str.106, i32 noundef 511, ptr noundef nonnull @.str.116) #21
  unreachable

15:                                               ; preds = %wg_create_cipher.exit
  %16 = add nsw i32 %2, -16
  %17 = zext nneg i32 %16 to i64
  %18 = getelementptr i8, ptr %1, i64 %17
  call void @llvm.lifetime.start.p0(i64 12, ptr nonnull %7) #18
  store i32 0, ptr %7, align 4
  %19 = getelementptr inbounds nuw i8, ptr %7, i64 4
  store i64 0, ptr %19, align 4
  %20 = call i32 @gcry_cipher_setiv(ptr noundef nonnull %.pre.i, ptr noundef nonnull %7, i64 noundef 12)
  %21 = icmp eq i32 %20, 0
  br i1 %21, label %22, label %wg_aead_decrypt.exit

22:                                               ; preds = %15
  %23 = call i32 @gcry_cipher_authenticate(ptr noundef nonnull %.pre.i, ptr noundef %3, i64 noundef 32)
  %24 = icmp eq i32 %23, 0
  br i1 %24, label %25, label %wg_aead_decrypt.exit

25:                                               ; preds = %22
  %26 = zext nneg i32 %5 to i64
  %27 = call i32 @gcry_cipher_decrypt(ptr noundef nonnull %.pre.i, ptr noundef %4, i64 noundef %26, ptr noundef %1, i64 noundef %17)
  %28 = icmp eq i32 %27, 0
  br i1 %28, label %29, label %wg_aead_decrypt.exit

29:                                               ; preds = %25
  %30 = call i32 @gcry_cipher_checktag(ptr noundef nonnull %.pre.i, ptr noundef %18, i64 noundef 16)
  %31 = icmp eq i32 %30, 0
  br label %wg_aead_decrypt.exit

wg_aead_decrypt.exit:                             ; preds = %15, %22, %25, %29
  %32 = phi i1 [ false, %25 ], [ false, %22 ], [ false, %15 ], [ %31, %29 ]
  call void @llvm.lifetime.end.p0(i64 12, ptr nonnull %7) #18
  call void @gcry_cipher_close(ptr noundef nonnull %.pre.i)
  ret i1 %32
}